target datalayout = "e-m:e-p270:32:32-p271:32:32-p272:64:64-i64:64-i128:128-f80:128-n8:16:32:64-S128"
target triple = "x86_64-pc-linux-gnu"

%struct._ir_insn = type { %struct.anon, %union.anon.5 }
%struct.anon = type { %union.anon, %union.anon.4 }
%union.anon = type { i32 }
%union.anon.4 = type { i32 }
%union.anon.5 = type { %union._ir_val }
%union._ir_val = type { double }
%struct.anon.0 = type { %union.anon.1, %union.anon.3 }
%union.anon.1 = type { i16 }
%union.anon.3 = type { i16 }
%struct.anon.2 = type { i8, i8 }
%struct.anon.7 = type { %union.anon.8, i32 }
%union.anon.8 = type { i32 }
%struct.anon.9 = type { %union.anon.10, i16 }
%union.anon.10 = type { i16 }
%struct.anon.11 = type { %union.anon.12, i8 }
%union.anon.12 = type { i8 }

; Function Attrs: nounwind uwtable
define internal i32 @ir_ext_const(ptr noundef %0, ptr noundef %1, i32 noundef %2, i32 noundef %3) #0 {
  %5 = alloca ptr, align 8
  %6 = alloca ptr, align 8
  %7 = alloca i32, align 4
  %8 = alloca i32, align 4
  %9 = alloca %union._ir_val, align 8
  store ptr %0, ptr %5, align 8, !tbaa !4
  store ptr %1, ptr %6, align 8, !tbaa !31
  store i32 %2, ptr %7, align 4, !tbaa !33
  store i32 %3, ptr %8, align 4, !tbaa !33
  call void @llvm.lifetime.start.p0(i64 8, ptr %9) #10
  %10 = load ptr, ptr %6, align 8, !tbaa !31
  %11 = getelementptr inbounds nuw %struct._ir_insn, ptr %10, i32 0, i32 0
  %12 = getelementptr inbounds nuw %struct.anon, ptr %11, i32 0, i32 0
  %13 = getelementptr inbounds nuw %struct.anon.0, ptr %12, i32 0, i32 0
  %14 = getelementptr inbounds nuw %struct.anon.2, ptr %13, i32 0, i32 1
  %15 = load i8, ptr %14, align 1, !tbaa !46
  %16 = zext i8 %15 to i32
  switch i32 %16, label %17 [
    i32 8, label %18
    i32 2, label %18
    i32 1, label %18
    i32 9, label %38
    i32 3, label %38
    i32 10, label %56
    i32 4, label %56
  ]

17:                                               ; preds = %4
  br label %18

18:                                               ; preds = %4, %4, %4, %17
  %19 = load i32, ptr %7, align 4, !tbaa !33
  %20 = icmp eq i32 %19, 31
  br i1 %20, label %21, label %29

21:                                               ; preds = %18
  %22 = load ptr, ptr %6, align 8, !tbaa !31
  %23 = getelementptr inbounds nuw %struct._ir_insn, ptr %22, i32 0, i32 1
  %24 = getelementptr inbounds nuw %struct.anon.7, ptr %23, i32 0, i32 0
  %25 = getelementptr inbounds nuw %struct.anon.9, ptr %24, i32 0, i32 0
  %26 = getelementptr inbounds nuw %struct.anon.11, ptr %25, i32 0, i32 0
  %27 = load i8, ptr %26, align 8, !tbaa !46
  %28 = sext i8 %27 to i64
  store i64 %28, ptr %9, align 8, !tbaa !46
  br label %37

29:                                               ; preds = %18
  %30 = load ptr, ptr %6, align 8, !tbaa !31
  %31 = getelementptr inbounds nuw %struct._ir_insn, ptr %30, i32 0, i32 1
  %32 = getelementptr inbounds nuw %struct.anon.7, ptr %31, i32 0, i32 0
  %33 = getelementptr inbounds nuw %struct.anon.9, ptr %32, i32 0, i32 0
  %34 = getelementptr inbounds nuw %struct.anon.11, ptr %33, i32 0, i32 0
  %35 = load i8, ptr %34, align 8, !tbaa !46
  %36 = zext i8 %35 to i64
  store i64 %36, ptr %9, align 8, !tbaa !46
  br label %37

37:                                               ; preds = %29, %21
  br label %72

38:                                               ; preds = %4, %4
  %39 = load i32, ptr %7, align 4, !tbaa !33
  %40 = icmp eq i32 %39, 31
  br i1 %40, label %41, label %48

41:                                               ; preds = %38
  %42 = load ptr, ptr %6, align 8, !tbaa !31
  %43 = getelementptr inbounds nuw %struct._ir_insn, ptr %42, i32 0, i32 1
  %44 = getelementptr inbounds nuw %struct.anon.7, ptr %43, i32 0, i32 0
  %45 = getelementptr inbounds nuw %struct.anon.9, ptr %44, i32 0, i32 0
  %46 = load i16, ptr %45, align 8, !tbaa !46
  %47 = sext i16 %46 to i64
  store i64 %47, ptr %9, align 8, !tbaa !46
  br label %55

48:                                               ; preds = %38
  %49 = load ptr, ptr %6, align 8, !tbaa !31
  %50 = getelementptr inbounds nuw %struct._ir_insn, ptr %49, i32 0, i32 1
  %51 = getelementptr inbounds nuw %struct.anon.7, ptr %50, i32 0, i32 0
  %52 = getelementptr inbounds nuw %struct.anon.9, ptr %51, i32 0, i32 0
  %53 = load i16, ptr %52, align 8, !tbaa !46
  %54 = zext i16 %53 to i64
  store i64 %54, ptr %9, align 8, !tbaa !46
  br label %55

55:                                               ; preds = %48, %41
  br label %72

56:                                               ; preds = %4, %4
  %57 = load i32, ptr %7, align 4, !tbaa !33
  %58 = icmp eq i32 %57, 31
  br i1 %58, label %59, label %65

59:                                               ; preds = %56
  %60 = load ptr, ptr %6, align 8, !tbaa !31
  %61 = getelementptr inbounds nuw %struct._ir_insn, ptr %60, i32 0, i32 1
  %62 = getelementptr inbounds nuw %struct.anon.7, ptr %61, i32 0, i32 0
  %63 = load i32, ptr %62, align 8, !tbaa !46
  %64 = sext i32 %63 to i64
  store i64 %64, ptr %9, align 8, !tbaa !46
  br label %71

65:                                               ; preds = %56
  %66 = load ptr, ptr %6, align 8, !tbaa !31
  %67 = getelementptr inbounds nuw %struct._ir_insn, ptr %66, i32 0, i32 1
  %68 = getelementptr inbounds nuw %struct.anon.7, ptr %67, i32 0, i32 0
  %69 = load i32, ptr %68, align 8, !tbaa !46
  %70 = zext i32 %69 to i64
  store i64 %70, ptr %9, align 8, !tbaa !46
  br label %71

71:                                               ; preds = %65, %59
  br label %72

72:                                               ; preds = %71, %55, %37
  %73 = load ptr, ptr %5, align 8, !tbaa !4
  %74 = load i32, ptr %8, align 4, !tbaa !33
  %75 = trunc i32 %74 to i8
  %76 = getelementptr inbounds nuw %union._ir_val, ptr %9, i32 0, i32 0
  %77 = load i64, ptr %76, align 8
  %78 = call i32 @ir_const(ptr noundef %73, i64 %77, i8 noundef zeroext %75)
  call void @llvm.lifetime.end.p0(i64 8, ptr %9) #10
  ret i32 %78
}