; Function Attrs: nounwind uwtable
define internal fastcc i32 @ir_ext_const(ptr noundef %0, ptr noundef readonly captures(none) %1, i32 noundef range(i32 0, 256) %2, i32 noundef range(i32 0, 256) %3) unnamed_addr #0 {
  %5 = getelementptr inbounds nuw i8, ptr %1, i64 1
  %6 = load i8, ptr %5, align 1, !tbaa !39
  switch i8 %6, label %7 [
    i8 4, label %23
    i8 10, label %23
    i8 3, label %15
    i8 9, label %15
  ]

7:                                                ; preds = %4
  %8 = icmp eq i32 %2, 31
  %9 = getelementptr inbounds nuw i8, ptr %1, i64 8
  %10 = load i8, ptr %9, align 8, !tbaa !39
  br i1 %8, label %11, label %13

11:                                               ; preds = %7
  %12 = sext i8 %10 to i64
  br label %31

13:                                               ; preds = %7
  %14 = zext i8 %10 to i64
  br label %31

15:                                               ; preds = %4, %4
  %16 = icmp eq i32 %2, 31
  %17 = getelementptr inbounds nuw i8, ptr %1, i64 8
  %18 = load i16, ptr %17, align 8, !tbaa !39
  br i1 %16, label %19, label %21

19:                                               ; preds = %15
  %20 = sext i16 %18 to i64
  br label %31

21:                                               ; preds = %15
  %22 = zext i16 %18 to i64
  br label %31

23:                                               ; preds = %4, %4
  %24 = icmp eq i32 %2, 31
  %25 = getelementptr inbounds nuw i8, ptr %1, i64 8
  %26 = load i32, ptr %25, align 8, !tbaa !39
  br i1 %24, label %27, label %29

27:                                               ; preds = %23
  %28 = sext i32 %26 to i64
  br label %31

29:                                               ; preds = %23
  %30 = zext i32 %26 to i64
  br label %31

31:                                               ; preds = %27, %29, %19, %21, %11, %13
  %.sroa.0.0 = phi i64 [ %12, %11 ], [ %14, %13 ], [ %20, %19 ], [ %22, %21 ], [ %28, %27 ], [ %30, %29 ]
  %32 = trunc nuw i32 %3 to i8
  %33 = tail call i32 @ir_const(ptr noundef %0, i64 %.sroa.0.0, i8 noundef zeroext %32) #13
  ret i32 %33
}